; Function Attrs: mustprogress uwtable
define noundef nonnull align 8 dereferenceable(8) ptr @_ZN19OpenColorIO_v2_5devlsERSoRKNS_14GroupTransformE(ptr noundef nonnull returned align 8 dereferenceable(8) %0, ptr noundef nonnull align 8 dereferenceable(8) %1) local_unnamed_addr #0 personality ptr @__gxx_personality_v0 {
  %3 = alloca %"class.std::shared_ptr.17", align 8
  %4 = tail call noundef nonnull align 8 dereferenceable(8) ptr @_ZSt16__ostream_insertIcSt11char_traitsIcEERSt13basic_ostreamIT_T0_ES6_PKS3_l(ptr noundef nonnull align 8 dereferenceable(8) %0, ptr noundef nonnull @.str.7, i64 noundef 16)
  %5 = tail call noundef nonnull align 8 dereferenceable(8) ptr @_ZSt16__ostream_insertIcSt11char_traitsIcEERSt13basic_ostreamIT_T0_ES6_PKS3_l(ptr noundef nonnull align 8 dereferenceable(8) %0, ptr noundef nonnull @.str.8, i64 noundef 10)
  %6 = load ptr, ptr %1, align 8, !tbaa !3
  %7 = getelementptr inbounds nuw i8, ptr %6, i64 8
  %8 = load ptr, ptr %7, align 8
  %9 = tail call noundef i32 %8(ptr noundef nonnull align 8 dereferenceable(8) %1) #24
  %10 = tail call noundef ptr @_ZN19OpenColorIO_v2_5dev26TransformDirectionToStringENS_18TransformDirectionE(i32 noundef %9)
  %.not.i = icmp eq ptr %10, null
  br i1 %.not.i, label %11, label %19

11:                                               ; preds = %2
  %12 = load ptr, ptr %0, align 8, !tbaa !3
  %13 = getelementptr i8, ptr %12, i64 -24
  %14 = load i64, ptr %13, align 8
  %15 = getelementptr inbounds i8, ptr %0, i64 %14
  %16 = getelementptr inbounds nuw i8, ptr %15, i64 32
  %17 = load i32, ptr %16, align 8, !tbaa !78
  %18 = or i32 %17, 1
  tail call void @_ZNSt9basic_iosIcSt11char_traitsIcEE5clearESt12_Ios_Iostate(ptr noundef nonnull align 8 dereferenceable(264) %15, i32 noundef %18)
  br label %_ZStlsISt11char_traitsIcEERSt13basic_ostreamIcT_ES5_PKc.exit

19:                                               ; preds = %2
  %20 = tail call noundef i64 @strlen(ptr noundef nonnull dereferenceable(1) %10) #24
  %21 = tail call noundef nonnull align 8 dereferenceable(8) ptr @_ZSt16__ostream_insertIcSt11char_traitsIcEERSt13basic_ostreamIT_T0_ES6_PKS3_l(ptr noundef nonnull align 8 dereferenceable(8) %0, ptr noundef nonnull %10, i64 noundef %20)
  br label %_ZStlsISt11char_traitsIcEERSt13basic_ostreamIcT_ES5_PKc.exit

_ZStlsISt11char_traitsIcEERSt13basic_ostreamIcT_ES5_PKc.exit: ; preds = %11, %19
  %22 = tail call noundef nonnull align 8 dereferenceable(8) ptr @_ZSt16__ostream_insertIcSt11char_traitsIcEERSt13basic_ostreamIT_T0_ES6_PKS3_l(ptr noundef nonnull align 8 dereferenceable(8) %0, ptr noundef nonnull @.str.9, i64 noundef 2)
  %23 = tail call noundef nonnull align 8 dereferenceable(8) ptr @_ZSt16__ostream_insertIcSt11char_traitsIcEERSt13basic_ostreamIT_T0_ES6_PKS3_l(ptr noundef nonnull align 8 dereferenceable(8) %0, ptr noundef nonnull @.str.10, i64 noundef 11)
  %24 = load ptr, ptr %1, align 8, !tbaa !3
  %25 = getelementptr inbounds nuw i8, ptr %24, i64 88
  %26 = load ptr, ptr %25, align 8
  %27 = tail call noundef i32 %26(ptr noundef nonnull align 8 dereferenceable(8) %1) #24
  %28 = icmp sgt i32 %27, 0
  br i1 %28, label %.lr.ph, label %._crit_edge

.lr.ph:                                           ; preds = %_ZStlsISt11char_traitsIcEERSt13basic_ostreamIcT_ES5_PKc.exit
  %29 = getelementptr inbounds nuw i8, ptr %3, i64 8
  br label %31

._crit_edge:                                      ; preds = %_ZNSt12__shared_ptrIKN19OpenColorIO_v2_5dev9TransformELN9__gnu_cxx12_Lock_policyE2EED2Ev.exit, %_ZStlsISt11char_traitsIcEERSt13basic_ostreamIcT_ES5_PKc.exit
  %30 = call noundef nonnull align 8 dereferenceable(8) ptr @_ZSt16__ostream_insertIcSt11char_traitsIcEERSt13basic_ostreamIT_T0_ES6_PKS3_l(ptr noundef nonnull align 8 dereferenceable(8) %0, ptr noundef nonnull @.str.12, i64 noundef 1)
  ret ptr %0

31:                                               ; preds = %.lr.ph, %_ZNSt12__shared_ptrIKN19OpenColorIO_v2_5dev9TransformELN9__gnu_cxx12_Lock_policyE2EED2Ev.exit
  %.014 = phi i32 [ 0, %.lr.ph ], [ %61, %_ZNSt12__shared_ptrIKN19OpenColorIO_v2_5dev9TransformELN9__gnu_cxx12_Lock_policyE2EED2Ev.exit ]
  call void @llvm.lifetime.start.p0(i64 16, ptr nonnull %3) #24
  %32 = load ptr, ptr %1, align 8, !tbaa !3
  %33 = getelementptr inbounds nuw i8, ptr %32, i64 72
  %34 = load ptr, ptr %33, align 8
  call void %34(ptr dead_on_unwind nonnull writable sret(%"class.std::shared_ptr.17") align 8 %3, ptr noundef nonnull align 8 dereferenceable(8) %1, i32 noundef %.014)
  %35 = invoke noundef nonnull align 8 dereferenceable(8) ptr @_ZSt16__ostream_insertIcSt11char_traitsIcEERSt13basic_ostreamIT_T0_ES6_PKS3_l(ptr noundef nonnull align 8 dereferenceable(8) %0, ptr noundef nonnull @.str.11, i64 noundef 9)
          to label %_ZStlsISt11char_traitsIcEERSt13basic_ostreamIcT_ES5_PKc.exit13 unwind label %67

_ZStlsISt11char_traitsIcEERSt13basic_ostreamIcT_ES5_PKc.exit13: ; preds = %31
  %36 = load ptr, ptr %3, align 8, !tbaa !68
  %37 = invoke noundef nonnull align 8 dereferenceable(8) ptr @_ZN19OpenColorIO_v2_5devlsERSoRKNS_9TransformE(ptr noundef nonnull align 8 dereferenceable(8) %0, ptr noundef nonnull align 8 dereferenceable(8) %36)
          to label %38 unwind label %67

38:                                               ; preds = %_ZStlsISt11char_traitsIcEERSt13basic_ostreamIcT_ES5_PKc.exit13
  %39 = load ptr, ptr %29, align 8, !tbaa !39
  %.not.i.i = icmp eq ptr %39, null
  br i1 %.not.i.i, label %_ZNSt12__shared_ptrIKN19OpenColorIO_v2_5dev9TransformELN9__gnu_cxx12_Lock_policyE2EED2Ev.exit, label %40

40:                                               ; preds = %38
  %41 = getelementptr inbounds nuw i8, ptr %39, i64 8
  %42 = load atomic i64, ptr %41 acquire, align 8
  %43 = icmp eq i64 %42, 4294967297
  %44 = trunc i64 %42 to i32
  br i1 %43, label %45, label %53

45:                                               ; preds = %40
  store i32 0, ptr %41, align 8, !tbaa !40
  %46 = getelementptr inbounds nuw i8, ptr %39, i64 12
  store i32 0, ptr %46, align 4, !tbaa !43
  %47 = load ptr, ptr %39, align 8, !tbaa !3
  %48 = getelementptr inbounds nuw i8, ptr %47, i64 16
  %49 = load ptr, ptr %48, align 8
  call void %49(ptr noundef nonnull align 8 dereferenceable(16) %39) #24
  %50 = load ptr, ptr %39, align 8, !tbaa !3
  %51 = getelementptr inbounds nuw i8, ptr %50, i64 24
  %52 = load ptr, ptr %51, align 8
  call void %52(ptr noundef nonnull align 8 dereferenceable(16) %39) #24
  br label %_ZNSt12__shared_ptrIKN19OpenColorIO_v2_5dev9TransformELN9__gnu_cxx12_Lock_policyE2EED2Ev.exit

53:                                               ; preds = %40
  %54 = load i8, ptr @__libc_single_threaded, align 1, !tbaa !56
  %.not.i.i.i = icmp eq i8 %54, 0
  br i1 %.not.i.i.i, label %57, label %55

55:                                               ; preds = %53
  %56 = add nsw i32 %44, -1
  store i32 %56, ptr %41, align 4, !tbaa !57
  br label %_ZN9__gnu_cxx27__exchange_and_add_dispatchEPii.exit.i.i.i

57:                                               ; preds = %53
  %58 = atomicrmw volatile add ptr %41, i32 -1 acq_rel, align 4
  br label %_ZN9__gnu_cxx27__exchange_and_add_dispatchEPii.exit.i.i.i

_ZN9__gnu_cxx27__exchange_and_add_dispatchEPii.exit.i.i.i: ; preds = %57, %55
  %.0.i.i.i.i = phi i32 [ %44, %55 ], [ %58, %57 ]
  %59 = icmp eq i32 %.0.i.i.i.i, 1
  br i1 %59, label %60, label %_ZNSt12__shared_ptrIKN19OpenColorIO_v2_5dev9TransformELN9__gnu_cxx12_Lock_policyE2EED2Ev.exit, !prof !55

60:                                               ; preds = %_ZN9__gnu_cxx27__exchange_and_add_dispatchEPii.exit.i.i.i
  call void @_ZNSt16_Sp_counted_baseILN9__gnu_cxx12_Lock_policyE2EE24_M_release_last_use_coldEv(ptr noundef nonnull align 8 dereferenceable(16) %39) #24
  br label %_ZNSt12__shared_ptrIKN19OpenColorIO_v2_5dev9TransformELN9__gnu_cxx12_Lock_policyE2EED2Ev.exit

_ZNSt12__shared_ptrIKN19OpenColorIO_v2_5dev9TransformELN9__gnu_cxx12_Lock_policyE2EED2Ev.exit: ; preds = %38, %45, %_ZN9__gnu_cxx27__exchange_and_add_dispatchEPii.exit.i.i.i, %60
  call void @llvm.lifetime.end.p0(i64 16, ptr nonnull %3) #24
  %61 = add nuw nsw i32 %.014, 1
  %62 = load ptr, ptr %1, align 8, !tbaa !3
  %63 = getelementptr inbounds nuw i8, ptr %62, i64 88
  %64 = load ptr, ptr %63, align 8
  %65 = call noundef i32 %64(ptr noundef nonnull align 8 dereferenceable(8) %1) #24
  %66 = icmp slt i32 %61, %65
  br i1 %66, label %31, label %._crit_edge, !llvm.loop !87

67:                                               ; preds = %31, %_ZStlsISt11char_traitsIcEERSt13basic_ostreamIcT_ES5_PKc.exit13
  %68 = landingpad { ptr, i32 }
          cleanup
  call void @_ZNSt12__shared_ptrIKN19OpenColorIO_v2_5dev9TransformELN9__gnu_cxx12_Lock_policyE2EED2Ev(ptr noundef nonnull align 8 dereferenceable(16) %3) #24
  call void @llvm.lifetime.end.p0(i64 16, ptr nonnull %3) #24
  resume { ptr, i32 } %68
}